; Function Attrs: mustprogress nofree nounwind willreturn memory(write, argmem: readwrite, inaccessiblemem: readwrite) uwtable
define noalias noundef ptr @Gia_ManIffStart(ptr noundef readonly captures(none) %0) local_unnamed_addr #0 {
  %2 = tail call noalias dereferenceable_or_null(64) ptr @calloc(i64 noundef 1, i64 noundef 64) #13
  %3 = getelementptr i8, ptr %0, i64 24
  %.val = load i32, ptr %3, align 8, !tbaa !3
  %4 = tail call noalias dereferenceable_or_null(16) ptr @malloc(i64 noundef 16) #14
  %5 = add i32 %.val, -1
  %or.cond.i.i = icmp ult i32 %5, 15
  %spec.store.select.i.i = select i1 %or.cond.i.i, i32 16, i32 %.val
  store i32 %spec.store.select.i.i, ptr %4, align 8, !tbaa !28
  %.not.i.i = icmp eq i32 %spec.store.select.i.i, 0
  br i1 %.not.i.i, label %Vec_FltStartFull.exit, label %6

6:                                                ; preds = %1
  %7 = sext i32 %spec.store.select.i.i to i64
  %8 = shl nsw i64 %7, 2
  %9 = tail call noalias ptr @malloc(i64 noundef %8) #14
  br label %Vec_FltStartFull.exit

Vec_FltStartFull.exit:                            ; preds = %1, %6
  %10 = phi ptr [ %9, %6 ], [ null, %1 ]
  %11 = getelementptr inbounds nuw i8, ptr %4, i64 4
  %12 = getelementptr inbounds nuw i8, ptr %4, i64 8
  store ptr %10, ptr %12, align 8, !tbaa !31
  store i32 %.val, ptr %11, align 4, !tbaa !32
  %13 = sext i32 %.val to i64
  %14 = shl nsw i64 %13, 2
  tail call void @llvm.memset.p0.i64(ptr align 4 %10, i8 -1, i64 %14, i1 false)
  %15 = getelementptr inbounds nuw i8, ptr %2, i64 24
  store ptr %4, ptr %15, align 8, !tbaa !33
  %16 = tail call noalias dereferenceable_or_null(16) ptr @malloc(i64 noundef 16) #14
  %17 = getelementptr inbounds nuw i8, ptr %16, i64 4
  store i32 %spec.store.select.i.i, ptr %16, align 8, !tbaa !36
  br i1 %.not.i.i, label %Vec_IntAlloc.exit.thread.i17, label %Vec_IntAlloc.exit.i

Vec_IntAlloc.exit.i:                              ; preds = %Vec_FltStartFull.exit
  %18 = sext i32 %spec.store.select.i.i to i64
  %19 = shl nsw i64 %18, 2
  %20 = tail call noalias ptr @malloc(i64 noundef %19) #14
  %21 = getelementptr inbounds nuw i8, ptr %16, i64 8
  store ptr %20, ptr %21, align 8, !tbaa !37
  store i32 %.val, ptr %17, align 4, !tbaa !38
  %.not.i = icmp eq ptr %20, null
  br i1 %.not.i, label %Vec_IntAlloc.exit.i15, label %22

22:                                               ; preds = %Vec_IntAlloc.exit.i
  tail call void @llvm.memset.p0.i64(ptr nonnull align 4 %20, i8 -1, i64 %14, i1 false)
  br label %Vec_IntAlloc.exit.i15

Vec_IntAlloc.exit.thread.i17:                     ; preds = %Vec_FltStartFull.exit
  %23 = getelementptr inbounds nuw i8, ptr %16, i64 8
  store ptr null, ptr %23, align 8, !tbaa !37
  store i32 %.val, ptr %17, align 4, !tbaa !38
  %24 = getelementptr inbounds nuw i8, ptr %2, i64 48
  store ptr %16, ptr %24, align 8, !tbaa !39
  %25 = tail call noalias dereferenceable_or_null(16) ptr @malloc(i64 noundef 16) #14
  %26 = getelementptr inbounds nuw i8, ptr %25, i64 4
  store i32 0, ptr %25, align 8, !tbaa !36
  %27 = getelementptr inbounds nuw i8, ptr %25, i64 8
  store ptr null, ptr %27, align 8, !tbaa !37
  store i32 %.val, ptr %26, align 4, !tbaa !38
  br label %Vec_IntStartFull.exit18

Vec_IntAlloc.exit.i15:                            ; preds = %Vec_IntAlloc.exit.i, %22
  %28 = getelementptr inbounds nuw i8, ptr %2, i64 48
  store ptr %16, ptr %28, align 8, !tbaa !39
  %29 = tail call noalias dereferenceable_or_null(16) ptr @malloc(i64 noundef 16) #14
  %30 = getelementptr inbounds nuw i8, ptr %29, i64 4
  store i32 %spec.store.select.i.i, ptr %29, align 8, !tbaa !36
  %31 = tail call noalias ptr @malloc(i64 noundef %19) #14
  %32 = getelementptr inbounds nuw i8, ptr %29, i64 8
  store ptr %31, ptr %32, align 8, !tbaa !37
  store i32 %.val, ptr %30, align 4, !tbaa !38
  %.not.i16 = icmp eq ptr %31, null
  br i1 %.not.i16, label %Vec_IntStartFull.exit18, label %33

33:                                               ; preds = %Vec_IntAlloc.exit.i15
  tail call void @llvm.memset.p0.i64(ptr nonnull align 4 %31, i8 -1, i64 %14, i1 false)
  br label %Vec_IntStartFull.exit18

Vec_IntStartFull.exit18:                          ; preds = %Vec_IntAlloc.exit.thread.i17, %Vec_IntAlloc.exit.i15, %33
  %34 = phi ptr [ %25, %Vec_IntAlloc.exit.thread.i17 ], [ %29, %Vec_IntAlloc.exit.i15 ], [ %29, %33 ]
  %35 = getelementptr inbounds nuw i8, ptr %2, i64 56
  store ptr %34, ptr %35, align 8, !tbaa !39
  ret ptr %2
}